target datalayout = "e-m:e-p270:32:32-p271:32:32-p272:64:64-i64:64-i128:128-f80:128-n8:16:32:64-S128"
target triple = "x86_64-pc-linux-gnu"

%struct.__va_list_tag = type { i32, i32, ptr, ptr }

; Function Attrs: inlinehint nounwind uwtable
define internal ptr @exprintf(ptr noundef %0, ptr noundef %1, ...) #8 {
  %3 = alloca ptr, align 8
  %4 = alloca ptr, align 8
  %5 = alloca ptr, align 8
  %6 = alloca [1 x %struct.__va_list_tag], align 16
  %7 = alloca [1 x %struct.__va_list_tag], align 16
  %8 = alloca i32, align 4
  %9 = alloca ptr, align 8
  %10 = alloca i32, align 4
  store ptr %0, ptr %4, align 8, !tbaa !119
  store ptr %1, ptr %5, align 8, !tbaa !42
  call void @llvm.lifetime.start.p0(i64 24, ptr %6) #15
  %11 = getelementptr inbounds [1 x %struct.__va_list_tag], ptr %6, i64 0, i64 0
  call void @llvm.va_start.p0(ptr %11)
  call void @llvm.lifetime.start.p0(i64 24, ptr %7) #15
  %12 = getelementptr inbounds [1 x %struct.__va_list_tag], ptr %7, i64 0, i64 0
  %13 = getelementptr inbounds [1 x %struct.__va_list_tag], ptr %6, i64 0, i64 0
  call void @llvm.va_copy.p0(ptr %12, ptr %13)
  call void @llvm.lifetime.start.p0(i64 4, ptr %8) #15
  %14 = load ptr, ptr %5, align 8, !tbaa !42
  %15 = getelementptr inbounds [1 x %struct.__va_list_tag], ptr %7, i64 0, i64 0
  %16 = call i32 @vsnprintf(ptr noundef null, i64 noundef 0, ptr noundef %14, ptr noundef %15) #15
  store i32 %16, ptr %8, align 4, !tbaa !38
  %17 = load i32, ptr %8, align 4, !tbaa !38
  %18 = add nsw i32 %17, 1
  store i32 %18, ptr %8, align 4, !tbaa !38
  %19 = getelementptr inbounds [1 x %struct.__va_list_tag], ptr %7, i64 0, i64 0
  call void @llvm.va_end.p0(ptr %19)
  call void @llvm.lifetime.start.p0(i64 8, ptr %9) #15
  %20 = load ptr, ptr %4, align 8, !tbaa !119
  %21 = load i32, ptr %8, align 4, !tbaa !38
  %22 = sext i32 %21 to i64
  %23 = call ptr @vmalloc(ptr noundef %20, i64 noundef %22)
  store ptr %23, ptr %9, align 8, !tbaa !42
  %24 = load ptr, ptr %9, align 8, !tbaa !42
  %25 = icmp eq ptr %24, null
  br i1 %25, label %26, label %29

26:                                               ; preds = %2
  %27 = getelementptr inbounds [1 x %struct.__va_list_tag], ptr %6, i64 0, i64 0
  call void @llvm.va_end.p0(ptr %27)
  %28 = call ptr @exnospace()
  store ptr %28, ptr %3, align 8
  store i32 1, ptr %10, align 4
  br label %38

29:                                               ; preds = %2
  %30 = load ptr, ptr %9, align 8, !tbaa !42
  %31 = load i32, ptr %8, align 4, !tbaa !38
  %32 = sext i32 %31 to i64
  %33 = load ptr, ptr %5, align 8, !tbaa !42
  %34 = getelementptr inbounds [1 x %struct.__va_list_tag], ptr %6, i64 0, i64 0
  %35 = call i32 @vsnprintf(ptr noundef %30, i64 noundef %32, ptr noundef %33, ptr noundef %34) #15
  %36 = getelementptr inbounds [1 x %struct.__va_list_tag], ptr %6, i64 0, i64 0
  call void @llvm.va_end.p0(ptr %36)
  %37 = load ptr, ptr %9, align 8, !tbaa !42
  store ptr %37, ptr %3, align 8
  store i32 1, ptr %10, align 4
  br label %38

38:                                               ; preds = %29, %26
  call void @llvm.lifetime.end.p0(i64 8, ptr %9) #15
  call void @llvm.lifetime.end.p0(i64 4, ptr %8) #15
  call void @llvm.lifetime.end.p0(i64 24, ptr %7) #15
  call void @llvm.lifetime.end.p0(i64 24, ptr %6) #15
  %39 = load ptr, ptr %3, align 8
  ret ptr %39
}